; Function Attrs: mustprogress nofree nounwind uwtable
define void @_ZNK5faiss15IndexBinaryHash7displayEv(ptr nocapture noundef nonnull readonly align 8 dereferenceable(96) %0) local_unnamed_addr #17 align 2 {
  %2 = getelementptr inbounds i8, ptr %0, i64 48
  %.sroa.08.015 = load ptr, ptr %2, align 8
  %.not16 = icmp eq ptr %.sroa.08.015, null
  br i1 %.not16, label %._crit_edge20, label %.lr.ph19

.lr.ph19:                                         ; preds = %1, %._crit_edge
  %.sroa.08.017 = phi ptr [ %.sroa.08.0, %._crit_edge ], [ %.sroa.08.015, %1 ]
  %3 = getelementptr inbounds i8, ptr %.sroa.08.017, i64 8
  %4 = load i64, ptr %3, align 8
  %5 = tail call i32 (ptr, ...) @printf(ptr noundef nonnull dereferenceable(1) @.str.7, i64 noundef %4)
  %6 = getelementptr inbounds i8, ptr %.sroa.08.017, i64 16
  %7 = load ptr, ptr %6, align 8
  %8 = getelementptr inbounds i8, ptr %.sroa.08.017, i64 24
  %9 = load ptr, ptr %8, align 8
  %.not1213 = icmp eq ptr %7, %9
  br i1 %.not1213, label %._crit_edge, label %.lr.ph

.lr.ph:                                           ; preds = %.lr.ph19, %.lr.ph
  %.sroa.04.014 = phi ptr [ %12, %.lr.ph ], [ %7, %.lr.ph19 ]
  %10 = load i64, ptr %.sroa.04.014, align 8
  %11 = tail call i32 (ptr, ...) @printf(ptr noundef nonnull dereferenceable(1) @.str.8, i64 noundef %10)
  %12 = getelementptr inbounds i8, ptr %.sroa.04.014, i64 8
  %.not12 = icmp eq ptr %12, %9
  br i1 %.not12, label %._crit_edge, label %.lr.ph

._crit_edge:                                      ; preds = %.lr.ph, %.lr.ph19
  %puts = tail call i32 @puts(ptr nonnull dereferenceable(1) @str)
  %.sroa.08.0 = load ptr, ptr %.sroa.08.017, align 8
  %.not = icmp eq ptr %.sroa.08.0, null
  br i1 %.not, label %._crit_edge20, label %.lr.ph19, !llvm.loop !56

._crit_edge20:                                    ; preds = %._crit_edge, %1
  ret void
}